target datalayout = "e-m:e-p270:32:32-p271:32:32-p272:64:64-i64:64-i128:128-f80:128-n8:16:32:64-S128"
target triple = "x86_64-pc-linux-gnu"

%"class.YAML::Scanner" = type { %"class.YAML::Stream", %"class.std::queue", i8, i8, i8, i8, i8, %"class.std::stack", %"class.std::stack.12", %"class.YAML::ptr_vector", %"class.std::stack.22" }
%"class.YAML::Stream" = type { ptr, %"struct.YAML::Mark", i32, i8, %"class.std::deque", ptr, i64, i64 }
%"struct.YAML::Mark" = type { i32, i32, i32 }
%"class.std::deque" = type { %"class.std::_Deque_base" }
%"class.std::_Deque_base" = type { %"struct.std::_Deque_base<char, std::allocator<char>>::_Deque_impl" }
%"struct.std::_Deque_base<char, std::allocator<char>>::_Deque_impl" = type { %"struct.std::_Deque_base<char, std::allocator<char>>::_Deque_impl_data" }
%"struct.std::_Deque_base<char, std::allocator<char>>::_Deque_impl_data" = type { ptr, i64, %"struct.std::_Deque_iterator", %"struct.std::_Deque_iterator" }
%"struct.std::_Deque_iterator" = type { ptr, ptr, ptr, ptr }
%"class.std::queue" = type { %"class.std::deque.0" }
%"class.std::deque.0" = type { %"class.std::_Deque_base.1" }
%"class.std::_Deque_base.1" = type { %"struct.std::_Deque_base<YAML::Token, std::allocator<YAML::Token>>::_Deque_impl" }
%"struct.std::_Deque_base<YAML::Token, std::allocator<YAML::Token>>::_Deque_impl" = type { %"struct.std::_Deque_base<YAML::Token, std::allocator<YAML::Token>>::_Deque_impl_data" }
%"struct.std::_Deque_base<YAML::Token, std::allocator<YAML::Token>>::_Deque_impl_data" = type { ptr, i64, %"struct.std::_Deque_iterator.5", %"struct.std::_Deque_iterator.5" }
%"struct.std::_Deque_iterator.5" = type { ptr, ptr, ptr, ptr }
%"class.std::stack" = type { %"class.std::deque.6" }
%"class.std::deque.6" = type { %"class.std::_Deque_base.7" }
%"class.std::_Deque_base.7" = type { %"struct.std::_Deque_base<YAML::Scanner::SimpleKey, std::allocator<YAML::Scanner::SimpleKey>>::_Deque_impl" }
%"struct.std::_Deque_base<YAML::Scanner::SimpleKey, std::allocator<YAML::Scanner::SimpleKey>>::_Deque_impl" = type { %"struct.std::_Deque_base<YAML::Scanner::SimpleKey, std::allocator<YAML::Scanner::SimpleKey>>::_Deque_impl_data" }
%"struct.std::_Deque_base<YAML::Scanner::SimpleKey, std::allocator<YAML::Scanner::SimpleKey>>::_Deque_impl_data" = type { ptr, i64, %"struct.std::_Deque_iterator.11", %"struct.std::_Deque_iterator.11" }
%"struct.std::_Deque_iterator.11" = type { ptr, ptr, ptr, ptr }
%"class.std::stack.12" = type { %"class.std::deque.13" }
%"class.std::deque.13" = type { %"class.std::_Deque_base.14" }
%"class.std::_Deque_base.14" = type { %"struct.std::_Deque_base<YAML::Scanner::IndentMarker *, std::allocator<YAML::Scanner::IndentMarker *>>::_Deque_impl" }
%"struct.std::_Deque_base<YAML::Scanner::IndentMarker *, std::allocator<YAML::Scanner::IndentMarker *>>::_Deque_impl" = type { %"struct.std::_Deque_base<YAML::Scanner::IndentMarker *, std::allocator<YAML::Scanner::IndentMarker *>>::_Deque_impl_data" }
%"struct.std::_Deque_base<YAML::Scanner::IndentMarker *, std::allocator<YAML::Scanner::IndentMarker *>>::_Deque_impl_data" = type { ptr, i64, %"struct.std::_Deque_iterator.18", %"struct.std::_Deque_iterator.18" }
%"struct.std::_Deque_iterator.18" = type { ptr, ptr, ptr, ptr }
%"class.YAML::ptr_vector" = type { %"class.std::vector" }
%"class.std::vector" = type { %"struct.std::_Vector_base" }
%"struct.std::_Vector_base" = type { %"struct.std::_Vector_base<std::unique_ptr<YAML::Scanner::IndentMarker>, std::allocator<std::unique_ptr<YAML::Scanner::IndentMarker>>>::_Vector_impl" }
%"struct.std::_Vector_base<std::unique_ptr<YAML::Scanner::IndentMarker>, std::allocator<std::unique_ptr<YAML::Scanner::IndentMarker>>>::_Vector_impl" = type { %"struct.std::_Vector_base<std::unique_ptr<YAML::Scanner::IndentMarker>, std::allocator<std::unique_ptr<YAML::Scanner::IndentMarker>>>::_Vector_impl_data" }
%"struct.std::_Vector_base<std::unique_ptr<YAML::Scanner::IndentMarker>, std::allocator<std::unique_ptr<YAML::Scanner::IndentMarker>>>::_Vector_impl_data" = type { ptr, ptr, ptr }
%"class.std::stack.22" = type { %"class.std::deque.23" }
%"class.std::deque.23" = type { %"class.std::_Deque_base.24" }
%"class.std::_Deque_base.24" = type { %"struct.std::_Deque_base<YAML::Scanner::FLOW_MARKER, std::allocator<YAML::Scanner::FLOW_MARKER>>::_Deque_impl" }
%"struct.std::_Deque_base<YAML::Scanner::FLOW_MARKER, std::allocator<YAML::Scanner::FLOW_MARKER>>::_Deque_impl" = type { %"struct.std::_Deque_base<YAML::Scanner::FLOW_MARKER, std::allocator<YAML::Scanner::FLOW_MARKER>>::_Deque_impl_data" }
%"struct.std::_Deque_base<YAML::Scanner::FLOW_MARKER, std::allocator<YAML::Scanner::FLOW_MARKER>>::_Deque_impl_data" = type { ptr, i64, %"struct.std::_Deque_iterator.28", %"struct.std::_Deque_iterator.28" }
%"struct.std::_Deque_iterator.28" = type { ptr, ptr, ptr, ptr }

; Function Attrs: mustprogress nounwind uwtable
define linkonce_odr { i64, i32 } @_ZNK4YAML6Stream4markEv(ptr noundef nonnull align 8 dereferenceable(136) %0) #2 comdat align 2 {
  %2 = alloca %"struct.YAML::Mark", align 4
  %3 = alloca ptr, align 8
  %4 = alloca { i64, i32 }, align 8
  store ptr %0, ptr %3, align 8, !tbaa !93
  %5 = load ptr, ptr %3, align 8
  %6 = getelementptr inbounds nuw %"class.YAML::Stream", ptr %5, i32 0, i32 1
  call void @llvm.memcpy.p0.p0.i64(ptr align 4 %2, ptr align 8 %6, i64 12, i1 false), !tbaa.struct !95
  call void @llvm.memcpy.p0.p0.i64(ptr align 8 %4, ptr align 4 %2, i64 12, i1 false)
  %7 = load { i64, i32 }, ptr %4, align 8
  ret { i64, i32 } %7
}

; Function Attrs: mustprogress uwtable
define { i64, i32 } @_ZNK4YAML7Scanner4markEv(ptr noundef nonnull align 8 dereferenceable(488) %0) #0 align 2 {
  %2 = alloca %"struct.YAML::Mark", align 4
  %3 = alloca ptr, align 8
  %4 = alloca { i64, i32 }, align 8
  %5 = alloca { i64, i32 }, align 8
  store ptr %0, ptr %3, align 8, !tbaa !3
  %6 = load ptr, ptr %3, align 8
  %7 = getelementptr inbounds nuw %"class.YAML::Scanner", ptr %6, i32 0, i32 0
  %8 = call { i64, i32 } @_ZNK4YAML6Stream4markEv(ptr noundef nonnull align 8 dereferenceable(136) %7)
  store { i64, i32 } %8, ptr %4, align 8
  call void @llvm.memcpy.p0.p0.i64(ptr align 4 %2, ptr align 8 %4, i64 12, i1 false)
  call void @llvm.memcpy.p0.p0.i64(ptr align 8 %5, ptr align 4 %2, i64 12, i1 false)
  %9 = load { i64, i32 }, ptr %5, align 8
  ret { i64, i32 } %9
}