; Function Attrs: mustprogress nofree norecurse nosync nounwind willreturn memory(argmem: read) uwtable
define { i64, i32 } @_ZNK4YAML7Scanner4markEv(ptr noundef nonnull readonly align 8 captures(none) dereferenceable(488) %0) local_unnamed_addr #5 align 2 {
  %2 = getelementptr inbounds nuw i8, ptr %0, i64 8
  %.sroa.01.0.copyload.i = load i64, ptr %2, align 8
  %.sroa.22.0..sroa_idx.i = getelementptr inbounds nuw i8, ptr %0, i64 16
  %.sroa.22.0.copyload.i = load i32, ptr %.sroa.22.0..sroa_idx.i, align 8, !tbaa !96
  %.fca.0.insert.i = insertvalue { i64, i32 } poison, i64 %.sroa.01.0.copyload.i, 0
  %.fca.1.insert.i = insertvalue { i64, i32 } %.fca.0.insert.i, i32 %.sroa.22.0.copyload.i, 1
  ret { i64, i32 } %.fca.1.insert.i
}